; Function Attrs: mustprogress nofree norecurse nosync nounwind willreturn memory(read, argmem: write, inaccessiblemem: none) uwtable
define dso_local void @geod_polygon_init(ptr noundef writeonly captures(none) initializes((0, 76)) %0, i32 noundef %1) local_unnamed_addr #5 {
  %3 = icmp ne i32 %1, 0
  %4 = zext i1 %3 to i32
  %5 = getelementptr inbounds nuw i8, ptr %0, i64 64
  store i32 %4, ptr %5, align 8, !tbaa !52
  %6 = load double, ptr @NaN, align 8, !tbaa !4
  %7 = getelementptr inbounds nuw i8, ptr %0, i64 8
  store double %6, ptr %7, align 8, !tbaa !54
  store double %6, ptr %0, align 8, !tbaa !55
  %8 = getelementptr inbounds nuw i8, ptr %0, i64 24
  store double %6, ptr %8, align 8, !tbaa !56
  %9 = getelementptr inbounds nuw i8, ptr %0, i64 16
  store double %6, ptr %9, align 8, !tbaa !57
  %10 = getelementptr inbounds nuw i8, ptr %0, i64 32
  %11 = getelementptr inbounds nuw i8, ptr %0, i64 68
  store i32 0, ptr %11, align 4, !tbaa !58
  %12 = getelementptr inbounds nuw i8, ptr %0, i64 72
  store i32 0, ptr %12, align 8, !tbaa !59
  tail call void @llvm.memset.p0.i64(ptr noundef nonnull align 8 dereferenceable(32) %10, i8 0, i64 32, i1 false)
  ret void
}